; Function Attrs: mustprogress uwtable
define noundef zeroext i1 @_ZN18OpenImageIO_v2_6_011ImageOutput7iowriteEPKvmm(ptr noundef nonnull align 8 dereferenceable(184) %this, ptr noundef %buf, i64 noundef %itemsize, i64 noundef %nitems) local_unnamed_addr #5 align 2 personality ptr @__gxx_personality_v0 {
entry:
  %size = alloca i64, align 8
  %n = alloca i64, align 8
  %ref.tmp = alloca i64, align 8
  %ref.tmp7 = alloca %"class.std::__cxx11::basic_string", align 8
  %add.ptr.i.i.i.i.i.i = getelementptr inbounds i8, ptr %this, i64 176
  %0 = load ptr, ptr %add.ptr.i.i.i.i.i.i, align 8
  %m_io2 = getelementptr inbounds i8, ptr %0, i64 16
  %mul = mul i64 %nitems, %itemsize
  store i64 %mul, ptr %size, align 8
  %1 = load ptr, ptr %m_io2, align 8
  %vtable = load ptr, ptr %1, align 8
  %vfn = getelementptr inbounds i8, ptr %vtable, i64 64
  %2 = load ptr, ptr %vfn, align 8
  %call3 = tail call noundef i64 %2(ptr noundef nonnull align 8 dereferenceable(88) %1, ptr noundef %buf, i64 noundef %mul)
  store i64 %call3, ptr %n, align 8
  %cmp.not = icmp eq i64 %call3, %mul
  br i1 %cmp.not, label %if.end, label %if.then

if.then:                                          ; preds = %entry
  %3 = load ptr, ptr %m_io2, align 8
  %vtable4 = load ptr, ptr %3, align 8
  %vfn5 = getelementptr inbounds i8, ptr %vtable4, i64 40
  %4 = load ptr, ptr %vfn5, align 8
  %call6 = tail call noundef i64 %4(ptr noundef nonnull align 8 dereferenceable(88) %3)
  %sub = sub i64 %call6, %call3
  store i64 %sub, ptr %ref.tmp, align 8
  %5 = load ptr, ptr %m_io2, align 8
  call void @_ZNK18OpenImageIO_v2_6_010Filesystem7IOProxy5errorB5cxx11Ev(ptr nonnull sret(%"class.std::__cxx11::basic_string") align 8 %ref.tmp7, ptr noundef nonnull align 8 dereferenceable(88) %5)
  invoke void @_ZNK18OpenImageIO_v2_6_011ImageOutput8errorfmtIJmmmNSt7__cxx1112basic_stringIcSt11char_traitsIcESaIcEEEEEEvPKcDpRKT_(ptr noundef nonnull align 8 dereferenceable(184) %this, ptr noundef nonnull @.str.15, ptr noundef nonnull align 8 dereferenceable(8) %ref.tmp, ptr noundef nonnull align 8 dereferenceable(8) %n, ptr noundef nonnull align 8 dereferenceable(8) %size, ptr noundef nonnull align 8 dereferenceable(32) %ref.tmp7)
          to label %invoke.cont unwind label %lpad

invoke.cont:                                      ; preds = %if.then
  call void @_ZNSt7__cxx1112basic_stringIcSt11char_traitsIcESaIcEED1Ev(ptr noundef nonnull align 8 dereferenceable(32) %ref.tmp7) #25
  %.pre = load i64, ptr %n, align 8
  %.pre3 = load i64, ptr %size, align 8
  br label %if.end

lpad:                                             ; preds = %if.then
  %6 = landingpad { ptr, i32 }
          cleanup
  call void @_ZNSt7__cxx1112basic_stringIcSt11char_traitsIcESaIcEED1Ev(ptr noundef nonnull align 8 dereferenceable(32) %ref.tmp7) #25
  resume { ptr, i32 } %6

if.end:                                           ; preds = %invoke.cont, %entry
  %7 = phi i64 [ %.pre3, %invoke.cont ], [ %mul, %entry ]
  %8 = phi i64 [ %.pre, %invoke.cont ], [ %mul, %entry ]
  %cmp8 = icmp eq i64 %8, %7
  ret i1 %cmp8
}